target datalayout = "e-m:e-p270:32:32-p271:32:32-p272:64:64-i64:64-i128:128-f80:128-n8:16:32:64-S128"
target triple = "x86_64-pc-linux-gnu"

%struct._xml_frame_t = type { i32, ptr, ptr, ptr, ptr, ptr, ptr, ptr, ptr, ptr, ptr, ptr, ptr, i32, i32, ptr, ptr }
%struct._xml_ns_t = type { ptr, ptr, i32, i32, i32, ptr, ptr, ptr }
%struct._GPtrArray = type { ptr, i32 }
%struct._tvbparse_elem_t = type { i32, ptr, ptr, i32, i32, ptr, ptr, ptr, ptr, ptr }

@gssapi_handle = internal global ptr null, align 8
@xml_ns = internal global { ptr, ptr, i32, i32, i32, [4 x i8], ptr, ptr, ptr } { ptr @.str.35, ptr @.str.64, i32 -1, i32 -1, i32 -1, [4 x i8] zeroinitializer, ptr null, ptr null, ptr null }, align 8
@.str.259 = private unnamed_addr constant [3 x i8] c"%s\00", align 1
@.str.260 = private unnamed_addr constant [20 x i8] c"BinarySecurityToken\00", align 1
@.str.261 = private unnamed_addr constant [10 x i8] c"ValueType\00", align 1
@.str.262 = private unnamed_addr constant [90 x i8] c"http://docs.oasis-open.org/wss/oasis-wss-kerberos-token-profile-1.1#GSS_Kerberosv5_AP_REQ\00", align 1
@.str.263 = private unnamed_addr constant [12 x i8] c"GSSAPI Data\00", align 1

; Function Attrs: nounwind null_pointer_is_valid sspstrong uwtable
define ptr @xml_get_attrib(ptr noundef %0, ptr noundef %1) #0 {
  %3 = alloca ptr, align 8
  %4 = alloca ptr, align 8
  %5 = alloca ptr, align 8
  %6 = alloca ptr, align 8
  store ptr %0, ptr %3, align 8
  store ptr %1, ptr %4, align 8
  call void @llvm.lifetime.start.p0(i64 8, ptr %5) #10
  store ptr null, ptr %5, align 8
  call void @llvm.lifetime.start.p0(i64 8, ptr %6) #10
  %7 = load ptr, ptr %3, align 8
  %8 = getelementptr inbounds nuw %struct._xml_frame_t, ptr %7, i32 0, i32 2
  %9 = load ptr, ptr %8, align 8
  store ptr %9, ptr %6, align 8
  br label %10

10:                                               ; preds = %32, %2
  %11 = load ptr, ptr %6, align 8
  %12 = icmp ne ptr %11, null
  br i1 %12, label %13, label %36

13:                                               ; preds = %10
  %14 = load ptr, ptr %6, align 8
  %15 = getelementptr inbounds nuw %struct._xml_frame_t, ptr %14, i32 0, i32 0
  %16 = load i32, ptr %15, align 8
  %17 = icmp eq i32 %16, 4
  br i1 %17, label %18, label %32

18:                                               ; preds = %13
  %19 = load ptr, ptr %6, align 8
  %20 = getelementptr inbounds nuw %struct._xml_frame_t, ptr %19, i32 0, i32 7
  %21 = load ptr, ptr %20, align 8
  %22 = icmp ne ptr %21, null
  br i1 %22, label %23, label %32

23:                                               ; preds = %18
  %24 = load ptr, ptr %6, align 8
  %25 = getelementptr inbounds nuw %struct._xml_frame_t, ptr %24, i32 0, i32 7
  %26 = load ptr, ptr %25, align 8
  %27 = load ptr, ptr %4, align 8
  %28 = call i32 @strcmp(ptr noundef %26, ptr noundef %27) #11
  %29 = icmp ne i32 %28, 0
  br i1 %29, label %32, label %30

30:                                               ; preds = %23
  %31 = load ptr, ptr %6, align 8
  store ptr %31, ptr %5, align 8
  br label %36

32:                                               ; preds = %23, %18, %13
  %33 = load ptr, ptr %6, align 8
  %34 = getelementptr inbounds nuw %struct._xml_frame_t, ptr %33, i32 0, i32 5
  %35 = load ptr, ptr %34, align 8
  store ptr %35, ptr %6, align 8
  br label %10, !llvm.loop !8

36:                                               ; preds = %30, %10
  %37 = load ptr, ptr %5, align 8
  call void @llvm.lifetime.end.p0(i64 8, ptr %6) #10
  call void @llvm.lifetime.end.p0(i64 8, ptr %5) #10
  ret ptr %37
}

; Function Attrs: nounwind null_pointer_is_valid sspstrong uwtable
define internal void @insert_xml_frame(ptr noundef %0, ptr noundef %1) #0 {
  %3 = alloca ptr, align 8
  %4 = alloca ptr, align 8
  store ptr %0, ptr %3, align 8
  store ptr %1, ptr %4, align 8
  %5 = load ptr, ptr %4, align 8
  %6 = getelementptr inbounds nuw %struct._xml_frame_t, ptr %5, i32 0, i32 2
  store ptr null, ptr %6, align 8
  %7 = load ptr, ptr %4, align 8
  %8 = getelementptr inbounds nuw %struct._xml_frame_t, ptr %7, i32 0, i32 3
  store ptr null, ptr %8, align 8
  %9 = load ptr, ptr %3, align 8
  %10 = load ptr, ptr %4, align 8
  %11 = getelementptr inbounds nuw %struct._xml_frame_t, ptr %10, i32 0, i32 1
  store ptr %9, ptr %11, align 8
  %12 = load ptr, ptr %4, align 8
  %13 = getelementptr inbounds nuw %struct._xml_frame_t, ptr %12, i32 0, i32 5
  store ptr null, ptr %13, align 8
  %14 = load ptr, ptr %4, align 8
  %15 = getelementptr inbounds nuw %struct._xml_frame_t, ptr %14, i32 0, i32 4
  store ptr null, ptr %15, align 8
  %16 = load ptr, ptr %3, align 8
  %17 = icmp eq ptr %16, null
  br i1 %17, label %18, label %19

18:                                               ; preds = %2
  br label %43

19:                                               ; preds = %2
  %20 = load ptr, ptr %3, align 8
  %21 = getelementptr inbounds nuw %struct._xml_frame_t, ptr %20, i32 0, i32 2
  %22 = load ptr, ptr %21, align 8
  %23 = icmp eq ptr %22, null
  br i1 %23, label %24, label %28

24:                                               ; preds = %19
  %25 = load ptr, ptr %4, align 8
  %26 = load ptr, ptr %3, align 8
  %27 = getelementptr inbounds nuw %struct._xml_frame_t, ptr %26, i32 0, i32 2
  store ptr %25, ptr %27, align 8
  br label %39

28:                                               ; preds = %19
  %29 = load ptr, ptr %4, align 8
  %30 = load ptr, ptr %3, align 8
  %31 = getelementptr inbounds nuw %struct._xml_frame_t, ptr %30, i32 0, i32 3
  %32 = load ptr, ptr %31, align 8
  %33 = getelementptr inbounds nuw %struct._xml_frame_t, ptr %32, i32 0, i32 5
  store ptr %29, ptr %33, align 8
  %34 = load ptr, ptr %3, align 8
  %35 = getelementptr inbounds nuw %struct._xml_frame_t, ptr %34, i32 0, i32 3
  %36 = load ptr, ptr %35, align 8
  %37 = load ptr, ptr %4, align 8
  %38 = getelementptr inbounds nuw %struct._xml_frame_t, ptr %37, i32 0, i32 4
  store ptr %36, ptr %38, align 8
  br label %39

39:                                               ; preds = %28, %24
  %40 = load ptr, ptr %4, align 8
  %41 = load ptr, ptr %3, align 8
  %42 = getelementptr inbounds nuw %struct._xml_frame_t, ptr %41, i32 0, i32 3
  store ptr %40, ptr %42, align 8
  br label %43

43:                                               ; preds = %39, %18
  ret void
}

; Function Attrs: null_pointer_is_valid sspstrong uwtable
define internal void @after_token(ptr noundef %0, ptr noundef %1, ptr noundef %2) #3 {
  %4 = alloca ptr, align 8
  %5 = alloca ptr, align 8
  %6 = alloca ptr, align 8
  %7 = alloca ptr, align 8
  %8 = alloca ptr, align 8
  %9 = alloca i32, align 4
  %10 = alloca i8, align 1
  %11 = alloca ptr, align 8
  %12 = alloca ptr, align 8
  %13 = alloca ptr, align 8
  %14 = alloca ptr, align 8
  %15 = alloca ptr, align 8
  %16 = alloca i64, align 8
  %17 = alloca i32, align 4
  %18 = alloca ptr, align 8
  store ptr %0, ptr %4, align 8
  store ptr %1, ptr %5, align 8
  store ptr %2, ptr %6, align 8
  call void @llvm.lifetime.start.p0(i64 8, ptr %7) #10
  %19 = load ptr, ptr %4, align 8
  store ptr %19, ptr %7, align 8
  call void @llvm.lifetime.start.p0(i64 8, ptr %8) #10
  %20 = load ptr, ptr %7, align 8
  %21 = getelementptr inbounds nuw %struct._GPtrArray, ptr %20, i32 0, i32 0
  %22 = load ptr, ptr %21, align 8
  %23 = load ptr, ptr %7, align 8
  %24 = getelementptr inbounds nuw %struct._GPtrArray, ptr %23, i32 0, i32 1
  %25 = load i32, ptr %24, align 8
  %26 = sub i32 %25, 1
  %27 = zext i32 %26 to i64
  %28 = getelementptr ptr, ptr %22, i64 %27
  %29 = load ptr, ptr %28, align 8
  store ptr %29, ptr %8, align 8
  call void @llvm.lifetime.start.p0(i64 4, ptr %9) #10
  call void @llvm.lifetime.start.p0(i64 1, ptr %10) #10
  store i8 0, ptr %10, align 1
  call void @llvm.lifetime.start.p0(i64 8, ptr %11) #10
  call void @llvm.lifetime.start.p0(i64 8, ptr %12) #10
  store ptr null, ptr %12, align 8
  call void @llvm.lifetime.start.p0(i64 8, ptr %13) #10
  store ptr null, ptr %13, align 8
  %30 = load ptr, ptr %6, align 8
  %31 = getelementptr inbounds nuw %struct._tvbparse_elem_t, ptr %30, i32 0, i32 0
  %32 = load i32, ptr %31, align 8
  %33 = icmp eq i32 %32, -1000
  br i1 %33, label %34, label %49

34:                                               ; preds = %3
  %35 = load ptr, ptr %8, align 8
  %36 = getelementptr inbounds nuw %struct._xml_frame_t, ptr %35, i32 0, i32 12
  %37 = load ptr, ptr %36, align 8
  %38 = icmp ne ptr %37, null
  br i1 %38, label %39, label %45

39:                                               ; preds = %34
  %40 = load ptr, ptr %8, align 8
  %41 = getelementptr inbounds nuw %struct._xml_frame_t, ptr %40, i32 0, i32 12
  %42 = load ptr, ptr %41, align 8
  %43 = getelementptr inbounds nuw %struct._xml_ns_t, ptr %42, i32 0, i32 3
  %44 = load i32, ptr %43, align 4
  br label %47

45:                                               ; preds = %34
  %46 = load i32, ptr getelementptr inbounds nuw (%struct._xml_ns_t, ptr @xml_ns, i32 0, i32 3), align 4
  br label %47

47:                                               ; preds = %45, %39
  %48 = phi i32 [ %44, %39 ], [ %46, %45 ]
  store i32 %48, ptr %9, align 4
  store i8 1, ptr %10, align 1
  br label %61

49:                                               ; preds = %3
  %50 = load ptr, ptr %6, align 8
  %51 = getelementptr inbounds nuw %struct._tvbparse_elem_t, ptr %50, i32 0, i32 0
  %52 = load i32, ptr %51, align 8
  %53 = icmp sgt i32 %52, 0
  br i1 %53, label %54, label %58

54:                                               ; preds = %49
  %55 = load ptr, ptr %6, align 8
  %56 = getelementptr inbounds nuw %struct._tvbparse_elem_t, ptr %55, i32 0, i32 0
  %57 = load i32, ptr %56, align 8
  store i32 %57, ptr %9, align 4
  br label %60

58:                                               ; preds = %49
  %59 = load i32, ptr getelementptr inbounds nuw (%struct._xml_ns_t, ptr @xml_ns, i32 0, i32 3), align 4
  store i32 %59, ptr %9, align 4
  br label %60

60:                                               ; preds = %58, %54
  br label %61

61:                                               ; preds = %60, %47
  %62 = load ptr, ptr %8, align 8
  %63 = getelementptr inbounds nuw %struct._xml_frame_t, ptr %62, i32 0, i32 9
  %64 = load ptr, ptr %63, align 8
  %65 = load i32, ptr %9, align 4
  %66 = load ptr, ptr %6, align 8
  %67 = getelementptr inbounds nuw %struct._tvbparse_elem_t, ptr %66, i32 0, i32 2
  %68 = load ptr, ptr %67, align 8
  %69 = load ptr, ptr %6, align 8
  %70 = getelementptr inbounds nuw %struct._tvbparse_elem_t, ptr %69, i32 0, i32 3
  %71 = load i32, ptr %70, align 8
  %72 = load ptr, ptr %6, align 8
  %73 = getelementptr inbounds nuw %struct._tvbparse_elem_t, ptr %72, i32 0, i32 4
  %74 = load i32, ptr %73, align 4
  %75 = call ptr @proto_tree_add_item(ptr noundef %64, i32 noundef %65, ptr noundef %68, i32 noundef %71, i32 noundef %74, i32 noundef 2)
  store ptr %75, ptr %11, align 8
  %76 = call ptr @wmem_packet_scope()
  %77 = load ptr, ptr %6, align 8
  %78 = getelementptr inbounds nuw %struct._tvbparse_elem_t, ptr %77, i32 0, i32 2
  %79 = load ptr, ptr %78, align 8
  %80 = load ptr, ptr %6, align 8
  %81 = getelementptr inbounds nuw %struct._tvbparse_elem_t, ptr %80, i32 0, i32 3
  %82 = load i32, ptr %81, align 8
  %83 = load ptr, ptr %6, align 8
  %84 = getelementptr inbounds nuw %struct._tvbparse_elem_t, ptr %83, i32 0, i32 4
  %85 = load i32, ptr %84, align 4
  %86 = call ptr @tvb_format_text(ptr noundef %76, ptr noundef %79, i32 noundef %82, i32 noundef %85)
  store ptr %86, ptr %13, align 8
  %87 = load ptr, ptr %11, align 8
  %88 = load ptr, ptr %13, align 8
  call void (ptr, ptr, ...) @proto_item_set_text(ptr noundef %87, ptr noundef @.str.259, ptr noundef %88)
  %89 = load i8, ptr %10, align 1, !range !13, !noundef !14
  %90 = trunc i8 %89 to i1
  br i1 %90, label %91, label %139

91:                                               ; preds = %61
  %92 = call ptr @wmem_packet_scope()
  %93 = call noalias ptr @wmem_alloc(ptr noundef %92, i64 noundef 128) #12
  store ptr %93, ptr %12, align 8
  %94 = load ptr, ptr %12, align 8
  %95 = getelementptr inbounds nuw %struct._xml_frame_t, ptr %94, i32 0, i32 0
  store i32 5, ptr %95, align 8
  %96 = load ptr, ptr %12, align 8
  %97 = getelementptr inbounds nuw %struct._xml_frame_t, ptr %96, i32 0, i32 6
  store ptr null, ptr %97, align 8
  %98 = load ptr, ptr %12, align 8
  %99 = getelementptr inbounds nuw %struct._xml_frame_t, ptr %98, i32 0, i32 7
  store ptr null, ptr %99, align 8
  %100 = load ptr, ptr %6, align 8
  %101 = getelementptr inbounds nuw %struct._tvbparse_elem_t, ptr %100, i32 0, i32 2
  %102 = load ptr, ptr %101, align 8
  %103 = load ptr, ptr %6, align 8
  %104 = getelementptr inbounds nuw %struct._tvbparse_elem_t, ptr %103, i32 0, i32 3
  %105 = load i32, ptr %104, align 8
  %106 = load ptr, ptr %6, align 8
  %107 = getelementptr inbounds nuw %struct._tvbparse_elem_t, ptr %106, i32 0, i32 4
  %108 = load i32, ptr %107, align 4
  %109 = call ptr @tvb_new_subset_length(ptr noundef %102, i32 noundef %105, i32 noundef %108)
  %110 = load ptr, ptr %12, align 8
  %111 = getelementptr inbounds nuw %struct._xml_frame_t, ptr %110, i32 0, i32 8
  store ptr %109, ptr %111, align 8
  %112 = load ptr, ptr %8, align 8
  %113 = load ptr, ptr %12, align 8
  call void @insert_xml_frame(ptr noundef %112, ptr noundef %113)
  %114 = load ptr, ptr %11, align 8
  %115 = load ptr, ptr %12, align 8
  %116 = getelementptr inbounds nuw %struct._xml_frame_t, ptr %115, i32 0, i32 10
  store ptr %114, ptr %116, align 8
  %117 = load ptr, ptr %11, align 8
  %118 = load ptr, ptr %12, align 8
  %119 = getelementptr inbounds nuw %struct._xml_frame_t, ptr %118, i32 0, i32 11
  store ptr %117, ptr %119, align 8
  %120 = load ptr, ptr %12, align 8
  %121 = getelementptr inbounds nuw %struct._xml_frame_t, ptr %120, i32 0, i32 9
  store ptr null, ptr %121, align 8
  %122 = load ptr, ptr %6, align 8
  %123 = getelementptr inbounds nuw %struct._tvbparse_elem_t, ptr %122, i32 0, i32 3
  %124 = load i32, ptr %123, align 8
  %125 = load ptr, ptr %12, align 8
  %126 = getelementptr inbounds nuw %struct._xml_frame_t, ptr %125, i32 0, i32 13
  store i32 %124, ptr %126, align 8
  %127 = load ptr, ptr %6, align 8
  %128 = getelementptr inbounds nuw %struct._tvbparse_elem_t, ptr %127, i32 0, i32 4
  %129 = load i32, ptr %128, align 4
  %130 = load ptr, ptr %12, align 8
  %131 = getelementptr inbounds nuw %struct._xml_frame_t, ptr %130, i32 0, i32 14
  store i32 %129, ptr %131, align 4
  %132 = load ptr, ptr %12, align 8
  %133 = getelementptr inbounds nuw %struct._xml_frame_t, ptr %132, i32 0, i32 12
  store ptr null, ptr %133, align 8
  %134 = load ptr, ptr %8, align 8
  %135 = getelementptr inbounds nuw %struct._xml_frame_t, ptr %134, i32 0, i32 15
  %136 = load ptr, ptr %135, align 8
  %137 = load ptr, ptr %12, align 8
  %138 = getelementptr inbounds nuw %struct._xml_frame_t, ptr %137, i32 0, i32 15
  store ptr %136, ptr %138, align 8
  br label %139

139:                                              ; preds = %91, %61
  %140 = load ptr, ptr %12, align 8
  %141 = icmp ne ptr %140, null
  br i1 %141, label %142, label %193

142:                                              ; preds = %139
  %143 = load ptr, ptr %8, align 8
  %144 = icmp ne ptr %143, null
  br i1 %144, label %145, label %193

145:                                              ; preds = %142
  %146 = load ptr, ptr %8, align 8
  %147 = getelementptr inbounds nuw %struct._xml_frame_t, ptr %146, i32 0, i32 7
  %148 = load ptr, ptr %147, align 8
  %149 = icmp ne ptr %148, null
  br i1 %149, label %150, label %193

150:                                              ; preds = %145
  %151 = load ptr, ptr %8, align 8
  %152 = getelementptr inbounds nuw %struct._xml_frame_t, ptr %151, i32 0, i32 7
  %153 = load ptr, ptr %152, align 8
  %154 = call i32 @strcmp(ptr noundef %153, ptr noundef @.str.260) #11
  %155 = icmp eq i32 %154, 0
  br i1 %155, label %156, label %193

156:                                              ; preds = %150
  call void @llvm.lifetime.start.p0(i64 8, ptr %14) #10
  store ptr null, ptr %14, align 8
  %157 = load ptr, ptr %8, align 8
  %158 = call ptr @xml_get_attrib(ptr noundef %157, ptr noundef @.str.261)
  store ptr %158, ptr %14, align 8
  %159 = load ptr, ptr %14, align 8
  %160 = icmp ne ptr %159, null
  br i1 %160, label %161, label %192

161:                                              ; preds = %156
  call void @llvm.lifetime.start.p0(i64 8, ptr %15) #10
  store ptr @.str.262, ptr %15, align 8
  call void @llvm.lifetime.start.p0(i64 8, ptr %16) #10
  %162 = load ptr, ptr %15, align 8
  %163 = call i64 @strlen(ptr noundef %162) #11
  store i64 %163, ptr %16, align 8
  call void @llvm.lifetime.start.p0(i64 4, ptr %17) #10
  %164 = load ptr, ptr %14, align 8
  %165 = getelementptr inbounds nuw %struct._xml_frame_t, ptr %164, i32 0, i32 8
  %166 = load ptr, ptr %165, align 8
  %167 = load ptr, ptr %15, align 8
  %168 = load i64, ptr %16, align 8
  %169 = call i32 @tvb_strneql(ptr noundef %166, i32 noundef 0, ptr noundef %167, i64 noundef %168)
  store i32 %169, ptr %17, align 4
  %170 = load i32, ptr %17, align 4
  %171 = icmp eq i32 %170, 0
  br i1 %171, label %172, label %191

172:                                              ; preds = %161
  call void @llvm.lifetime.start.p0(i64 8, ptr %18) #10
  %173 = load ptr, ptr %12, align 8
  %174 = getelementptr inbounds nuw %struct._xml_frame_t, ptr %173, i32 0, i32 8
  %175 = load ptr, ptr %174, align 8
  %176 = load ptr, ptr %13, align 8
  %177 = call ptr @base64_to_tvb(ptr noundef %175, ptr noundef %176)
  store ptr %177, ptr %18, align 8
  %178 = load ptr, ptr %8, align 8
  %179 = getelementptr inbounds nuw %struct._xml_frame_t, ptr %178, i32 0, i32 15
  %180 = load ptr, ptr %179, align 8
  %181 = load ptr, ptr %18, align 8
  call void @add_new_data_source(ptr noundef %180, ptr noundef %181, ptr noundef @.str.263)
  %182 = load ptr, ptr @gssapi_handle, align 8
  %183 = load ptr, ptr %18, align 8
  %184 = load ptr, ptr %8, align 8
  %185 = getelementptr inbounds nuw %struct._xml_frame_t, ptr %184, i32 0, i32 15
  %186 = load ptr, ptr %185, align 8
  %187 = load ptr, ptr %8, align 8
  %188 = getelementptr inbounds nuw %struct._xml_frame_t, ptr %187, i32 0, i32 9
  %189 = load ptr, ptr %188, align 8
  %190 = call i32 @call_dissector(ptr noundef %182, ptr noundef %183, ptr noundef %186, ptr noundef %189)
  call void @llvm.lifetime.end.p0(i64 8, ptr %18) #10
  br label %191

191:                                              ; preds = %172, %161
  call void @llvm.lifetime.end.p0(i64 4, ptr %17) #10
  call void @llvm.lifetime.end.p0(i64 8, ptr %16) #10
  call void @llvm.lifetime.end.p0(i64 8, ptr %15) #10
  br label %192

192:                                              ; preds = %191, %156
  call void @llvm.lifetime.end.p0(i64 8, ptr %14) #10
  br label %193

193:                                              ; preds = %192, %150, %145, %142, %139
  call void @llvm.lifetime.end.p0(i64 8, ptr %13) #10
  call void @llvm.lifetime.end.p0(i64 8, ptr %12) #10
  call void @llvm.lifetime.end.p0(i64 8, ptr %11) #10
  call void @llvm.lifetime.end.p0(i64 1, ptr %10) #10
  call void @llvm.lifetime.end.p0(i64 4, ptr %9) #10
  call void @llvm.lifetime.end.p0(i64 8, ptr %8) #10
  call void @llvm.lifetime.end.p0(i64 8, ptr %7) #10
  ret void
}