; Function Attrs: null_pointer_is_valid sspstrong uwtable
define internal void @after_token(ptr noundef readonly captures(none) %0, ptr readnone captures(none) %1, ptr noundef readonly captures(none) %2) #4 {
  %4 = load ptr, ptr %0, align 8
  %5 = getelementptr inbounds nuw i8, ptr %0, i64 8
  %6 = load i32, ptr %5, align 8
  %7 = add i32 %6, -1
  %8 = zext i32 %7 to i64
  %9 = getelementptr ptr, ptr %4, i64 %8
  %10 = load ptr, ptr %9, align 8
  %11 = load i32, ptr %2, align 8
  %12 = icmp eq i32 %11, -1000
  br i1 %12, label %13, label %18

13:                                               ; preds = %3
  %14 = getelementptr inbounds nuw i8, ptr %10, i64 96
  %15 = load ptr, ptr %14, align 8
  %.not = icmp eq ptr %15, null
  %16 = getelementptr inbounds nuw i8, ptr %15, i64 20
  %.in = select i1 %.not, ptr getelementptr inbounds nuw (i8, ptr @xml_ns, i64 20), ptr %16
  %17 = load i32, ptr %.in, align 4
  br label %21

18:                                               ; preds = %3
  %19 = icmp sgt i32 %11, 0
  %20 = load i32, ptr getelementptr inbounds nuw (i8, ptr @xml_ns, i64 20), align 4
  %spec.select = select i1 %19, i32 %11, i32 %20
  br label %21

21:                                               ; preds = %18, %13
  %.0 = phi i32 [ %17, %13 ], [ %spec.select, %18 ]
  %22 = getelementptr inbounds nuw i8, ptr %10, i64 72
  %23 = load ptr, ptr %22, align 8
  %24 = getelementptr inbounds nuw i8, ptr %2, i64 16
  %25 = load ptr, ptr %24, align 8
  %26 = getelementptr inbounds nuw i8, ptr %2, i64 24
  %27 = load i32, ptr %26, align 8
  %28 = getelementptr inbounds nuw i8, ptr %2, i64 28
  %29 = load i32, ptr %28, align 4
  %30 = tail call ptr @proto_tree_add_item(ptr noundef %23, i32 noundef %.0, ptr noundef %25, i32 noundef %27, i32 noundef %29, i32 noundef 2)
  %31 = tail call ptr @wmem_packet_scope()
  %32 = load ptr, ptr %24, align 8
  %33 = load i32, ptr %26, align 8
  %34 = load i32, ptr %28, align 4
  %35 = tail call ptr @tvb_format_text(ptr noundef %31, ptr noundef %32, i32 noundef %33, i32 noundef %34)
  tail call void (ptr, ptr, ...) @proto_item_set_text(ptr noundef %30, ptr noundef nonnull @.str.259, ptr noundef %35)
  br i1 %12, label %36, label %.thread

36:                                               ; preds = %21
  %37 = tail call ptr @wmem_packet_scope()
  %38 = tail call noalias dereferenceable_or_null(128) ptr @wmem_alloc(ptr noundef %37, i64 noundef 128) #13
  store i32 5, ptr %38, align 8
  %39 = getelementptr inbounds nuw i8, ptr %38, i64 48
  tail call void @llvm.memset.p0.i64(ptr noundef nonnull align 8 dereferenceable(16) %39, i8 0, i64 16, i1 false)
  %40 = load ptr, ptr %24, align 8
  %41 = load i32, ptr %26, align 8
  %42 = load i32, ptr %28, align 4
  %43 = tail call ptr @tvb_new_subset_length(ptr noundef %40, i32 noundef %41, i32 noundef %42)
  %44 = getelementptr inbounds nuw i8, ptr %38, i64 64
  store ptr %43, ptr %44, align 8
  %45 = getelementptr inbounds nuw i8, ptr %38, i64 16
  %46 = getelementptr inbounds nuw i8, ptr %38, i64 8
  tail call void @llvm.memset.p0.i64(ptr noundef nonnull align 8 dereferenceable(16) %45, i8 0, i64 16, i1 false)
  store ptr %10, ptr %46, align 8
  %47 = getelementptr inbounds nuw i8, ptr %38, i64 32
  %48 = icmp eq ptr %10, null
  tail call void @llvm.memset.p0.i64(ptr noundef nonnull align 8 dereferenceable(16) %47, i8 0, i64 16, i1 false)
  br i1 %48, label %61, label %49

49:                                               ; preds = %36
  %50 = getelementptr inbounds nuw i8, ptr %10, i64 16
  %51 = load ptr, ptr %50, align 8
  %52 = icmp eq ptr %51, null
  br i1 %52, label %53, label %54

53:                                               ; preds = %49
  store ptr %38, ptr %50, align 8
  br label %59

54:                                               ; preds = %49
  %55 = getelementptr inbounds nuw i8, ptr %10, i64 24
  %56 = load ptr, ptr %55, align 8
  %57 = getelementptr inbounds nuw i8, ptr %56, i64 40
  store ptr %38, ptr %57, align 8
  %58 = load ptr, ptr %55, align 8
  store ptr %58, ptr %47, align 8
  br label %59

59:                                               ; preds = %54, %53
  %60 = getelementptr inbounds nuw i8, ptr %10, i64 24
  store ptr %38, ptr %60, align 8
  br label %61

61:                                               ; preds = %59, %36
  %62 = getelementptr inbounds nuw i8, ptr %38, i64 80
  store ptr %30, ptr %62, align 8
  %63 = getelementptr inbounds nuw i8, ptr %38, i64 88
  store ptr %30, ptr %63, align 8
  %64 = getelementptr inbounds nuw i8, ptr %38, i64 72
  store ptr null, ptr %64, align 8
  %65 = load i32, ptr %26, align 8
  %66 = getelementptr inbounds nuw i8, ptr %38, i64 104
  store i32 %65, ptr %66, align 8
  %67 = load i32, ptr %28, align 4
  %68 = getelementptr inbounds nuw i8, ptr %38, i64 108
  store i32 %67, ptr %68, align 4
  %69 = getelementptr inbounds nuw i8, ptr %38, i64 96
  store ptr null, ptr %69, align 8
  %70 = getelementptr inbounds nuw i8, ptr %10, i64 112
  %71 = load ptr, ptr %70, align 8
  %72 = getelementptr inbounds nuw i8, ptr %38, i64 112
  store ptr %71, ptr %72, align 8
  %73 = icmp ne ptr %38, null
  %74 = icmp ne ptr %10, null
  %or.cond = select i1 %73, i1 %74, i1 false
  br i1 %or.cond, label %75, label %.thread

75:                                               ; preds = %61
  %76 = getelementptr inbounds nuw i8, ptr %10, i64 56
  %77 = load ptr, ptr %76, align 8
  %.not65 = icmp eq ptr %77, null
  br i1 %.not65, label %.thread, label %78

78:                                               ; preds = %75
  %79 = tail call i32 @strcmp(ptr noundef nonnull dereferenceable(1) %77, ptr noundef nonnull dereferenceable(20) @.str.260) #12
  %80 = icmp eq i32 %79, 0
  br i1 %80, label %81, label %.thread

81:                                               ; preds = %78
  %82 = getelementptr inbounds nuw i8, ptr %10, i64 16
  %.013.i = load ptr, ptr %82, align 8
  %.not14.i = icmp eq ptr %.013.i, null
  br i1 %.not14.i, label %.thread, label %.lr.ph.i

.lr.ph.i:                                         ; preds = %81, %90
  %.015.i = phi ptr [ %.0.i, %90 ], [ %.013.i, %81 ]
  %83 = load i32, ptr %.015.i, align 8
  %84 = icmp eq i32 %83, 4
  br i1 %84, label %85, label %90

85:                                               ; preds = %.lr.ph.i
  %86 = getelementptr inbounds nuw i8, ptr %.015.i, i64 56
  %87 = load ptr, ptr %86, align 8
  %.not11.i = icmp eq ptr %87, null
  br i1 %.not11.i, label %90, label %88

88:                                               ; preds = %85
  %89 = tail call i32 @strcmp(ptr noundef nonnull dereferenceable(1) %87, ptr noundef nonnull dereferenceable(10) @.str.261) #12
  %.not12.i = icmp eq i32 %89, 0
  br i1 %.not12.i, label %xml_get_attrib.exit, label %90

90:                                               ; preds = %88, %85, %.lr.ph.i
  %91 = getelementptr inbounds nuw i8, ptr %.015.i, i64 40
  %.0.i = load ptr, ptr %91, align 8
  %.not.i = icmp eq ptr %.0.i, null
  br i1 %.not.i, label %.thread, label %.lr.ph.i, !llvm.loop !8

xml_get_attrib.exit:                              ; preds = %88
  %92 = getelementptr inbounds nuw i8, ptr %.015.i, i64 64
  %93 = load ptr, ptr %92, align 8
  %94 = tail call i32 @tvb_strneql(ptr noundef %93, i32 noundef 0, ptr noundef nonnull @.str.262, i64 noundef 89)
  %95 = icmp eq i32 %94, 0
  br i1 %95, label %96, label %.thread

96:                                               ; preds = %xml_get_attrib.exit
  %97 = load ptr, ptr %44, align 8
  %98 = tail call ptr @base64_to_tvb(ptr noundef %97, ptr noundef %35)
  %99 = load ptr, ptr %70, align 8
  tail call void @add_new_data_source(ptr noundef %99, ptr noundef %98, ptr noundef nonnull @.str.263)
  %100 = load ptr, ptr @gssapi_handle, align 8
  %101 = load ptr, ptr %70, align 8
  %102 = load ptr, ptr %22, align 8
  %103 = tail call i32 @call_dissector(ptr noundef %100, ptr noundef %98, ptr noundef %101, ptr noundef %102)
  br label %.thread

.thread:                                          ; preds = %90, %81, %21, %96, %xml_get_attrib.exit, %78, %75, %61
  ret void
}